; Function Attrs: mustprogress uwtable
define dso_local noundef i32 @stbi_write_bmp(ptr nocapture noundef readonly %0, i32 noundef %1, i32 noundef %2, i32 noundef %3, ptr noundef %4) local_unnamed_addr #3 {
  %6 = alloca %struct.stbi__write_context, align 8
  %7 = tail call noalias ptr @fopen(ptr noundef %0, ptr noundef nonnull @.str.5)
  store ptr @_ZL17stbi__stdio_writePvS_i, ptr %6, align 8
  %8 = getelementptr inbounds i8, ptr %6, i64 8
  store ptr %7, ptr %8, align 8
  %.not6 = icmp eq ptr %7, null
  br i1 %.not6, label %17, label %9

9:                                                ; preds = %5
  %10 = and i32 %1, 3
  %11 = mul nsw i32 %1, 3
  %12 = add nsw i32 %11, %10
  %13 = mul nsw i32 %12, %2
  %14 = add nsw i32 %13, 54
  %15 = call noundef i32 (ptr, i32, i32, i32, i32, i32, i32, ptr, i32, i32, ptr, ...) @_ZL14stbiw__outfileP19stbi__write_contextiiiiiiPviiPKcz(ptr noundef nonnull %6, i32 poison, i32 poison, i32 noundef %1, i32 noundef %2, i32 noundef %3, i32 noundef 1, ptr noundef %4, i32 noundef 0, i32 noundef %10, ptr noundef nonnull @.str.12, i32 noundef 66, i32 noundef 77, i32 noundef %14, i32 noundef 0, i32 noundef 0, i32 noundef 54, i32 noundef 40, i32 noundef %1, i32 noundef %2, i32 noundef 1, i32 noundef 24, i32 noundef 0, i32 noundef 0, i32 noundef 0, i32 noundef 0, i32 noundef 0, i32 noundef 0), !range !5
  %16 = tail call i32 @fclose(ptr noundef nonnull %7)
  br label %17

17:                                               ; preds = %5, %9
  %.0 = phi i32 [ %15, %9 ], [ 0, %5 ]
  ret i32 %.0
}